; Function Attrs: nofree norecurse nosync nounwind memory(argmem: readwrite) uwtable
define internal void @conv_AV_SAMPLE_FMT_S16_to_AV_SAMPLE_FMT_FLT(ptr noundef writeonly captures(address) %0, ptr noundef readonly captures(none) %1, i32 noundef %2, i32 noundef %3, ptr noundef readnone captures(address) %4) #4 {
  %6 = mul nsw i32 %3, 3
  %7 = sext i32 %6 to i64
  %8 = sub nsw i64 0, %7
  %9 = getelementptr inbounds i8, ptr %4, i64 %8
  %10 = icmp ult ptr %0, %9
  br i1 %10, label %.lr.ph, label %.preheader

.lr.ph:                                           ; preds = %5
  %11 = sext i32 %2 to i64
  %12 = sext i32 %3 to i64
  br label %16

.preheader:                                       ; preds = %16, %5
  %.035.lcssa = phi ptr [ %1, %5 ], [ %35, %16 ]
  %.0.lcssa = phi ptr [ %0, %5 ], [ %36, %16 ]
  %13 = icmp ult ptr %.0.lcssa, %4
  br i1 %13, label %.lr.ph42, label %._crit_edge

.lr.ph42:                                         ; preds = %.preheader
  %14 = sext i32 %2 to i64
  %15 = sext i32 %3 to i64
  br label %38

16:                                               ; preds = %.lr.ph, %16
  %.038 = phi ptr [ %0, %.lr.ph ], [ %36, %16 ]
  %.03537 = phi ptr [ %1, %.lr.ph ], [ %35, %16 ]
  %17 = load i16, ptr %.03537, align 2, !tbaa !32
  %18 = sitofp i16 %17 to float
  %19 = fmul nsz float %18, 0x3F00000000000000
  store float %19, ptr %.038, align 4, !tbaa !38
  %20 = getelementptr inbounds i8, ptr %.03537, i64 %11
  %21 = getelementptr inbounds i8, ptr %.038, i64 %12
  %22 = load i16, ptr %20, align 2, !tbaa !32
  %23 = sitofp i16 %22 to float
  %24 = fmul nsz float %23, 0x3F00000000000000
  store float %24, ptr %21, align 4, !tbaa !38
  %25 = getelementptr inbounds i8, ptr %20, i64 %11
  %26 = getelementptr inbounds i8, ptr %21, i64 %12
  %27 = load i16, ptr %25, align 2, !tbaa !32
  %28 = sitofp i16 %27 to float
  %29 = fmul nsz float %28, 0x3F00000000000000
  store float %29, ptr %26, align 4, !tbaa !38
  %30 = getelementptr inbounds i8, ptr %25, i64 %11
  %31 = getelementptr inbounds i8, ptr %26, i64 %12
  %32 = load i16, ptr %30, align 2, !tbaa !32
  %33 = sitofp i16 %32 to float
  %34 = fmul nsz float %33, 0x3F00000000000000
  store float %34, ptr %31, align 4, !tbaa !38
  %35 = getelementptr inbounds i8, ptr %30, i64 %11
  %36 = getelementptr inbounds i8, ptr %31, i64 %12
  %37 = icmp ult ptr %36, %9
  br i1 %37, label %16, label %.preheader, !llvm.loop !56

38:                                               ; preds = %.lr.ph42, %38
  %.141 = phi ptr [ %.0.lcssa, %.lr.ph42 ], [ %43, %38 ]
  %.13640 = phi ptr [ %.035.lcssa, %.lr.ph42 ], [ %42, %38 ]
  %39 = load i16, ptr %.13640, align 2, !tbaa !32
  %40 = sitofp i16 %39 to float
  %41 = fmul nsz float %40, 0x3F00000000000000
  store float %41, ptr %.141, align 4, !tbaa !38
  %42 = getelementptr inbounds i8, ptr %.13640, i64 %14
  %43 = getelementptr inbounds i8, ptr %.141, i64 %15
  %44 = icmp ult ptr %43, %4
  br i1 %44, label %38, label %._crit_edge, !llvm.loop !57

._crit_edge:                                      ; preds = %38, %.preheader
  ret void
}